target datalayout = "e-m:e-p270:32:32-p271:32:32-p272:64:64-i64:64-i128:128-f80:128-n8:16:32:64-S128"
target triple = "x86_64-pc-linux-gnu"

%"class.cmsys::Status" = type { i32, %union.anon.3 }
%union.anon.3 = type { i32 }
%"struct.cmsys::SystemTools::CopyStatus" = type { %"class.cmsys::Status", i32 }

; Function Attrs: mustprogress uwtable
define dso_local { i64, i32 } @_ZN5cmsys11SystemTools9CopyAFileERKNSt7__cxx1112basic_stringIcSt11char_traitsIcESaIcEEES8_b(ptr noundef nonnull align 8 dereferenceable(32) %0, ptr noundef nonnull align 8 dereferenceable(32) %1, i1 noundef zeroext %2) #7 align 2 {
  %4 = alloca %"struct.cmsys::SystemTools::CopyStatus", align 4
  %5 = alloca ptr, align 8
  %6 = alloca ptr, align 8
  %7 = alloca i8, align 1
  %8 = alloca { i64, i32 }, align 8
  %9 = alloca { i64, i32 }, align 8
  %10 = alloca { i64, i32 }, align 8
  store ptr %0, ptr %5, align 8, !tbaa !28
  store ptr %1, ptr %6, align 8, !tbaa !28
  %11 = zext i1 %2 to i8
  store i8 %11, ptr %7, align 1, !tbaa !17
  %12 = load i8, ptr %7, align 1, !tbaa !17, !range !19, !noundef !20
  %13 = trunc i8 %12 to i1
  br i1 %13, label %14, label %18

14:                                               ; preds = %3
  %15 = load ptr, ptr %5, align 8, !tbaa !28
  %16 = load ptr, ptr %6, align 8, !tbaa !28
  %17 = call { i64, i32 } @_ZN5cmsys11SystemTools14CopyFileAlwaysERKNSt7__cxx1112basic_stringIcSt11char_traitsIcESaIcEEES8_(ptr noundef nonnull align 8 dereferenceable(32) %15, ptr noundef nonnull align 8 dereferenceable(32) %16)
  store { i64, i32 } %17, ptr %8, align 8
  call void @llvm.memcpy.p0.p0.i64(ptr align 4 %4, ptr align 8 %8, i64 12, i1 false)
  br label %22

18:                                               ; preds = %3
  %19 = load ptr, ptr %5, align 8, !tbaa !28
  %20 = load ptr, ptr %6, align 8, !tbaa !28
  %21 = call { i64, i32 } @_ZN5cmsys11SystemTools19CopyFileIfDifferentERKNSt7__cxx1112basic_stringIcSt11char_traitsIcESaIcEEES8_(ptr noundef nonnull align 8 dereferenceable(32) %19, ptr noundef nonnull align 8 dereferenceable(32) %20)
  store { i64, i32 } %21, ptr %9, align 8
  call void @llvm.memcpy.p0.p0.i64(ptr align 4 %4, ptr align 8 %9, i64 12, i1 false)
  br label %22

22:                                               ; preds = %18, %14
  call void @llvm.memcpy.p0.p0.i64(ptr align 8 %10, ptr align 4 %4, i64 12, i1 false)
  %23 = load { i64, i32 }, ptr %10, align 8
  ret { i64, i32 } %23
}