; Function Attrs: mustprogress uwtable
define dso_local { i64, i32 } @_ZN5cmsys11SystemTools9CopyAFileERKNSt7__cxx1112basic_stringIcSt11char_traitsIcESaIcEEES8_b(ptr noundef nonnull align 8 dereferenceable(32) %0, ptr noundef nonnull readonly align 8 captures(none) dereferenceable(32) %1, i1 noundef zeroext %2) local_unnamed_addr #6 align 2 {
  br i1 %2, label %4, label %6

4:                                                ; preds = %3
  %5 = tail call { i64, i32 } @_ZN5cmsys11SystemTools14CopyFileAlwaysERKNSt7__cxx1112basic_stringIcSt11char_traitsIcESaIcEEES8_(ptr noundef nonnull align 8 dereferenceable(32) %0, ptr noundef nonnull align 8 dereferenceable(32) %1)
  br label %8

6:                                                ; preds = %3
  %7 = tail call { i64, i32 } @_ZN5cmsys11SystemTools19CopyFileIfDifferentERKNSt7__cxx1112basic_stringIcSt11char_traitsIcESaIcEEES8_(ptr noundef nonnull align 8 dereferenceable(32) %0, ptr noundef nonnull align 8 dereferenceable(32) %1)
  br label %8

8:                                                ; preds = %6, %4
  %.pn = phi { i64, i32 } [ %5, %4 ], [ %7, %6 ]
  ret { i64, i32 } %.pn
}